; ModuleID = 'source-C-CXX/42/1684.c'
source_filename = "source-C-CXX/42/1684.c"
target datalayout = "e-m:e-p270:32:32-p271:32:32-p272:64:64-i64:64-f80:128-n8:16:32:64-S128"
target triple = "x86_64-pc-linux-gnu"

@.str = private unnamed_addr constant [3 x i8] c"%d\00", align 1
@.str.1 = private unnamed_addr constant [7 x i8] c"%d %d\0A\00", align 1

; Function Attrs: nofree nounwind sspstrong uwtable
define dso_local i32 @main() local_unnamed_addr #0 {
  %1 = alloca i32, align 4
  %2 = bitcast i32* %1 to i8*
  call void @llvm.lifetime.start.p0i8(i64 4, i8* nonnull %2) #3
  %3 = call i32 (i8*, ...) @__isoc99_scanf(i8* getelementptr inbounds ([3 x i8], [3 x i8]* @.str, i64 0, i64 0), i32* nonnull %1)
  %4 = load i32, i32* %1, align 4, !tbaa !5
  %5 = icmp sgt i32 %4, 3
  br i1 %5, label %6, label %39

6:                                                ; preds = %0, %34
  %7 = phi i32 [ %35, %34 ], [ %4, %0 ]
  %8 = phi i32 [ %38, %34 ], [ -3, %0 ]
  %9 = phi i32 [ %36, %34 ], [ 3, %0 ]
  br label %17

10:                                               ; preds = %17
  %11 = icmp eq i32 %21, %9
  br i1 %11, label %12, label %17, !llvm.loop !9

12:                                               ; preds = %10
  %13 = sub nsw i32 %7, %9
  %14 = icmp sgt i32 %13, 2
  br i1 %14, label %15, label %29

15:                                               ; preds = %12
  %16 = add i32 %7, %8
  br label %24

17:                                               ; preds = %6, %10
  %18 = phi i32 [ %21, %10 ], [ 2, %6 ]
  %19 = urem i32 %9, %18
  %20 = icmp eq i32 %19, 0
  %21 = add nuw nsw i32 %18, 1
  br i1 %20, label %34, label %10

22:                                               ; preds = %24
  %23 = icmp eq i32 %28, %16
  br i1 %23, label %29, label %24, !llvm.loop !11

24:                                               ; preds = %15, %22
  %25 = phi i32 [ %28, %22 ], [ 2, %15 ]
  %26 = srem i32 %13, %25
  %27 = icmp eq i32 %26, 0
  %28 = add nuw nsw i32 %25, 1
  br i1 %27, label %34, label %22

29:                                               ; preds = %22, %12
  %30 = icmp sgt i32 %9, %13
  br i1 %30, label %34, label %31

31:                                               ; preds = %29
  %32 = call i32 (i8*, ...) @printf(i8* nonnull dereferenceable(1) getelementptr inbounds ([7 x i8], [7 x i8]* @.str.1, i64 0, i64 0), i32 %9, i32 %13)
  %33 = load i32, i32* %1, align 4, !tbaa !5
  br label %34

34:                                               ; preds = %17, %24, %31, %29
  %35 = phi i32 [ %33, %31 ], [ %7, %29 ], [ %7, %24 ], [ %7, %17 ]
  %36 = add nuw nsw i32 %9, 1
  %37 = icmp sgt i32 %35, %36
  %38 = add i32 %8, -1
  br i1 %37, label %6, label %39, !llvm.loop !12

39:                                               ; preds = %34, %0
  call void @llvm.lifetime.end.p0i8(i64 4, i8* nonnull %2) #3
  ret i32 0
}

; Function Attrs: argmemonly mustprogress nofree nosync nounwind willreturn
declare void @llvm.lifetime.start.p0i8(i64 immarg, i8* nocapture) #1

; Function Attrs: nofree nounwind
declare noundef i32 @__isoc99_scanf(i8* nocapture noundef readonly, ...) local_unnamed_addr #2

; Function Attrs: argmemonly mustprogress nofree nosync nounwind willreturn
declare void @llvm.lifetime.end.p0i8(i64 immarg, i8* nocapture) #1

; Function Attrs: nofree nounwind
declare noundef i32 @printf(i8* nocapture noundef readonly, ...) local_unnamed_addr #2


!llvm.module.flags = !{!0, !1, !2, !3}
!llvm.ident = !{!4}

!0 = !{i32 1, !"wchar_size", i32 4}
!1 = !{i32 7, !"PIC Level", i32 2}
!2 = !{i32 7, !"PIE Level", i32 2}
!3 = !{i32 7, !"uwtable", i32 1}
!4 = !{!"clang version 13.0.0"}
!5 = !{!6, !6, i64 0}
!6 = !{!"int", !7, i64 0}
!7 = !{!"omnipotent char", !8, i64 0}
!8 = !{!"Simple C/C++ TBAA"}
!9 = distinct !{!9, !10}
!10 = !{!"llvm.loop.mustprogress"}
!11 = distinct !{!11, !10}
!12 = distinct !{!12, !10}
